target datalayout = "e-m:e-p270:32:32-p271:32:32-p272:64:64-i64:64-i128:128-f80:128-n8:16:32:64-S128"
target triple = "x86_64-unknown-linux-gnu"

%"class.pugi::xpath_node_set" = type { i32, [1 x %"class.pugi::xpath_node"], ptr, ptr }
%"class.pugi::xpath_node" = type { %"class.pugi::xml_node", %"class.pugi::xml_attribute" }
%"class.pugi::xml_node" = type { ptr }
%"class.pugi::xml_attribute" = type { ptr }

@_ZN4pugi4impl12_GLOBAL__N_138xml_memory_management_function_storageIiE10deallocateE = internal global ptr @_ZN4pugi4impl12_GLOBAL__N_118default_deallocateEPv, align 8

; Function Attrs: mustprogress nounwind uwtable
define void @_ZN4pugi14xpath_node_set5_moveERS0_(ptr noundef nonnull align 8 dereferenceable(40) %this, ptr noundef nonnull align 8 dereferenceable(40) %rhs) #0 align 2 {
entry:
  %this.addr = alloca ptr, align 8
  %rhs.addr = alloca ptr, align 8
  store ptr %this, ptr %this.addr, align 8
  store ptr %rhs, ptr %rhs.addr, align 8
  %this1 = load ptr, ptr %this.addr, align 8
  %0 = load ptr, ptr %rhs.addr, align 8
  %_type = getelementptr inbounds %"class.pugi::xpath_node_set", ptr %0, i32 0, i32 0
  %1 = load i32, ptr %_type, align 8
  %_type2 = getelementptr inbounds %"class.pugi::xpath_node_set", ptr %this1, i32 0, i32 0
  store i32 %1, ptr %_type2, align 8
  %2 = load ptr, ptr %rhs.addr, align 8
  %_storage = getelementptr inbounds %"class.pugi::xpath_node_set", ptr %2, i32 0, i32 1
  %arrayidx = getelementptr inbounds [1 x %"class.pugi::xpath_node"], ptr %_storage, i64 0, i64 0
  %_storage3 = getelementptr inbounds %"class.pugi::xpath_node_set", ptr %this1, i32 0, i32 1
  %arrayidx4 = getelementptr inbounds [1 x %"class.pugi::xpath_node"], ptr %_storage3, i64 0, i64 0
  call void @llvm.memcpy.p0.p0.i64(ptr align 8 %arrayidx4, ptr align 8 %arrayidx, i64 16, i1 false)
  %3 = load ptr, ptr %rhs.addr, align 8
  %_begin = getelementptr inbounds %"class.pugi::xpath_node_set", ptr %3, i32 0, i32 2
  %4 = load ptr, ptr %_begin, align 8
  %5 = load ptr, ptr %rhs.addr, align 8
  %_storage5 = getelementptr inbounds %"class.pugi::xpath_node_set", ptr %5, i32 0, i32 1
  %arraydecay = getelementptr inbounds [1 x %"class.pugi::xpath_node"], ptr %_storage5, i64 0, i64 0
  %cmp = icmp eq ptr %4, %arraydecay
  br i1 %cmp, label %cond.true, label %cond.false

cond.true:                                        ; preds = %entry
  %_storage6 = getelementptr inbounds %"class.pugi::xpath_node_set", ptr %this1, i32 0, i32 1
  %arraydecay7 = getelementptr inbounds [1 x %"class.pugi::xpath_node"], ptr %_storage6, i64 0, i64 0
  br label %cond.end

cond.false:                                       ; preds = %entry
  %6 = load ptr, ptr %rhs.addr, align 8
  %_begin8 = getelementptr inbounds %"class.pugi::xpath_node_set", ptr %6, i32 0, i32 2
  %7 = load ptr, ptr %_begin8, align 8
  br label %cond.end

cond.end:                                         ; preds = %cond.false, %cond.true
  %cond = phi ptr [ %arraydecay7, %cond.true ], [ %7, %cond.false ]
  %_begin9 = getelementptr inbounds %"class.pugi::xpath_node_set", ptr %this1, i32 0, i32 2
  store ptr %cond, ptr %_begin9, align 8
  %_begin10 = getelementptr inbounds %"class.pugi::xpath_node_set", ptr %this1, i32 0, i32 2
  %8 = load ptr, ptr %_begin10, align 8
  %9 = load ptr, ptr %rhs.addr, align 8
  %_end = getelementptr inbounds %"class.pugi::xpath_node_set", ptr %9, i32 0, i32 3
  %10 = load ptr, ptr %_end, align 8
  %11 = load ptr, ptr %rhs.addr, align 8
  %_begin11 = getelementptr inbounds %"class.pugi::xpath_node_set", ptr %11, i32 0, i32 2
  %12 = load ptr, ptr %_begin11, align 8
  %sub.ptr.lhs.cast = ptrtoint ptr %10 to i64
  %sub.ptr.rhs.cast = ptrtoint ptr %12 to i64
  %sub.ptr.sub = sub i64 %sub.ptr.lhs.cast, %sub.ptr.rhs.cast
  %sub.ptr.div = sdiv exact i64 %sub.ptr.sub, 16
  %add.ptr = getelementptr inbounds %"class.pugi::xpath_node", ptr %8, i64 %sub.ptr.div
  %_end12 = getelementptr inbounds %"class.pugi::xpath_node_set", ptr %this1, i32 0, i32 3
  store ptr %add.ptr, ptr %_end12, align 8
  %13 = load ptr, ptr %rhs.addr, align 8
  %_type13 = getelementptr inbounds %"class.pugi::xpath_node_set", ptr %13, i32 0, i32 0
  store i32 0, ptr %_type13, align 8
  %14 = load ptr, ptr %rhs.addr, align 8
  %_storage14 = getelementptr inbounds %"class.pugi::xpath_node_set", ptr %14, i32 0, i32 1
  %arraydecay15 = getelementptr inbounds [1 x %"class.pugi::xpath_node"], ptr %_storage14, i64 0, i64 0
  %15 = load ptr, ptr %rhs.addr, align 8
  %_begin16 = getelementptr inbounds %"class.pugi::xpath_node_set", ptr %15, i32 0, i32 2
  store ptr %arraydecay15, ptr %_begin16, align 8
  %16 = load ptr, ptr %rhs.addr, align 8
  %_storage17 = getelementptr inbounds %"class.pugi::xpath_node_set", ptr %16, i32 0, i32 1
  %arraydecay18 = getelementptr inbounds [1 x %"class.pugi::xpath_node"], ptr %_storage17, i64 0, i64 0
  %17 = load ptr, ptr %rhs.addr, align 8
  %_end19 = getelementptr inbounds %"class.pugi::xpath_node_set", ptr %17, i32 0, i32 3
  store ptr %arraydecay18, ptr %_end19, align 8
  ret void
}

; Function Attrs: mustprogress nounwind uwtable
define noundef nonnull align 8 dereferenceable(40) ptr @_ZN4pugi14xpath_node_setaSEOS0_(ptr noundef nonnull align 8 dereferenceable(40) %this, ptr noundef nonnull align 8 dereferenceable(40) %rhs) #0 align 2 personality ptr @__gxx_personality_v0 {
entry:
  %retval = alloca ptr, align 8
  %this.addr = alloca ptr, align 8
  %rhs.addr = alloca ptr, align 8
  store ptr %this, ptr %this.addr, align 8
  store ptr %rhs, ptr %rhs.addr, align 8
  %this1 = load ptr, ptr %this.addr, align 8
  %0 = load ptr, ptr %rhs.addr, align 8
  %cmp = icmp eq ptr %this1, %0
  br i1 %cmp, label %if.then, label %if.end

if.then:                                          ; preds = %entry
  store ptr %this1, ptr %retval, align 8
  br label %return

if.end:                                           ; preds = %entry
  %_begin = getelementptr inbounds %"class.pugi::xpath_node_set", ptr %this1, i32 0, i32 2
  %1 = load ptr, ptr %_begin, align 8
  %_storage = getelementptr inbounds %"class.pugi::xpath_node_set", ptr %this1, i32 0, i32 1
  %arraydecay = getelementptr inbounds [1 x %"class.pugi::xpath_node"], ptr %_storage, i64 0, i64 0
  %cmp2 = icmp ne ptr %1, %arraydecay
  br i1 %cmp2, label %if.then3, label %if.end5

if.then3:                                         ; preds = %if.end
  %2 = load ptr, ptr @_ZN4pugi4impl12_GLOBAL__N_138xml_memory_management_function_storageIiE10deallocateE, align 8
  %_begin4 = getelementptr inbounds %"class.pugi::xpath_node_set", ptr %this1, i32 0, i32 2
  %3 = load ptr, ptr %_begin4, align 8
  invoke void %2(ptr noundef %3)
          to label %invoke.cont unwind label %terminate.lpad

invoke.cont:                                      ; preds = %if.then3
  br label %if.end5

if.end5:                                          ; preds = %invoke.cont, %if.end
  %4 = load ptr, ptr %rhs.addr, align 8
  call void @_ZN4pugi14xpath_node_set5_moveERS0_(ptr noundef nonnull align 8 dereferenceable(40) %this1, ptr noundef nonnull align 8 dereferenceable(40) %4) #9
  store ptr %this1, ptr %retval, align 8
  br label %return

return:                                           ; preds = %if.end5, %if.then
  %5 = load ptr, ptr %retval, align 8
  ret ptr %5

terminate.lpad:                                   ; preds = %if.then3
  %6 = landingpad { ptr, i32 }
          catch ptr null
  %7 = extractvalue { ptr, i32 } %6, 0
  call void @__clang_call_terminate(ptr %7) #14
  unreachable
}