; Function Attrs: mustprogress nounwind uwtable
define noundef nonnull align 8 dereferenceable(40) ptr @_ZN4pugi14xpath_node_setaSEOS0_(ptr noundef nonnull returned align 8 dereferenceable(40) %this, ptr noundef nonnull align 8 dereferenceable(40) %rhs) local_unnamed_addr #13 align 2 personality ptr @__gxx_personality_v0 {
entry:
  %cmp = icmp eq ptr %this, %rhs
  br i1 %cmp, label %return, label %if.end

if.end:                                           ; preds = %entry
  %_begin = getelementptr inbounds i8, ptr %this, i64 24
  %0 = load ptr, ptr %_begin, align 8
  %_storage = getelementptr inbounds i8, ptr %this, i64 8
  %cmp2.not = icmp eq ptr %0, %_storage
  br i1 %cmp2.not, label %if.end5, label %if.then3

if.then3:                                         ; preds = %if.end
  %1 = load ptr, ptr @_ZN4pugi4impl12_GLOBAL__N_138xml_memory_management_function_storageIiE10deallocateE, align 8
  invoke void %1(ptr noundef %0)
          to label %if.end5 unwind label %terminate.lpad

if.end5:                                          ; preds = %if.then3, %if.end
  %2 = load i32, ptr %rhs, align 8
  store i32 %2, ptr %this, align 8
  %_storage.i = getelementptr inbounds i8, ptr %rhs, i64 8
  tail call void @llvm.memcpy.p0.p0.i64(ptr noundef nonnull align 8 dereferenceable(16) %_storage, ptr noundef nonnull align 8 dereferenceable(16) %_storage.i, i64 16, i1 false)
  %_begin.i = getelementptr inbounds i8, ptr %rhs, i64 24
  %3 = load ptr, ptr %_begin.i, align 8
  %cmp.i = icmp eq ptr %3, %_storage.i
  %_storage3..i = select i1 %cmp.i, ptr %_storage, ptr %3
  store ptr %_storage3..i, ptr %_begin, align 8
  %_end.i = getelementptr inbounds i8, ptr %rhs, i64 32
  %4 = load ptr, ptr %_end.i, align 8
  %5 = load ptr, ptr %_begin.i, align 8
  %sub.ptr.lhs.cast.i = ptrtoint ptr %4 to i64
  %sub.ptr.rhs.cast.i = ptrtoint ptr %5 to i64
  %sub.ptr.sub.i = sub i64 %sub.ptr.lhs.cast.i, %sub.ptr.rhs.cast.i
  %add.ptr.i = getelementptr inbounds i8, ptr %_storage3..i, i64 %sub.ptr.sub.i
  %_end12.i = getelementptr inbounds i8, ptr %this, i64 32
  store ptr %add.ptr.i, ptr %_end12.i, align 8
  store i32 0, ptr %rhs, align 8
  store ptr %_storage.i, ptr %_begin.i, align 8
  store ptr %_storage.i, ptr %_end.i, align 8
  br label %return

return:                                           ; preds = %entry, %if.end5
  ret ptr %this

terminate.lpad:                                   ; preds = %if.then3
  %6 = landingpad { ptr, i32 }
          catch ptr null
  %7 = extractvalue { ptr, i32 } %6, 0
  tail call void @__clang_call_terminate(ptr %7) #41
  unreachable
}